; Function Attrs: null_pointer_is_valid sspstrong uwtable
define internal void @netmonrec_process_info_destroy(ptr noundef %0) #0 {
  %2 = load ptr, ptr %0, align 8
  tail call void @g_free(ptr noundef %2)
  %3 = getelementptr inbounds nuw i8, ptr %0, i64 16
  %4 = load ptr, ptr %3, align 8
  tail call void @g_free(ptr noundef %4)
  tail call void @g_free(ptr noundef %0)
  ret void
}